Certificate:
    Data:
        Version: 3 (0x2)
        Serial Number: 2 (0x2)
        Signature Algorithm: sha1WithRSAEncryption
        Issuer: C=BA, ST=RS, L=Banja Luka, O=Elektrotehnicki fakultet, OU=ETF, CN=CA/emailAddress=ca@mail.com
        Validity
            Not Before: Feb  4 21:25:28 2023 GMT
            Not After : Aug  5 21:25:28 2023 GMT
        Subject: C=BA, ST=RS, O=ETF, OU=ETF, CN=klijent/emailAddress=klijent@mail.com
        Subject Public Key Info:
            Public Key Algorithm: rsaEncryption
                Public-Key: (2048 bit)
                Modulus:
                    00:c9:15:e8:8f:0f:e5:b1:5f:6e:c2:a2:45:d0:44:
                    26:f9:8e:3c:97:5e:fb:41:6f:11:df:5a:a0:ec:e7:
                    c5:26:54:e5:a0:67:c0:a5:da:3b:30:46:be:da:5a:
                    ac:0e:6d:c0:b3:84:c4:0f:e5:81:29:42:44:68:db:
                    7c:a0:f3:bf:95:18:5e:dc:65:d0:4f:30:bc:0a:42:
                    d5:5a:42:b0:92:62:5c:cd:d8:d0:84:e1:c7:2a:54:
                    1f:db:13:5c:d5:1c:20:1c:73:b0:39:f0:5d:79:27:
                    d7:69:f8:fc:7f:0c:16:b9:28:2f:e2:99:98:c4:30:
                    eb:79:7f:3f:3c:ea:9e:94:d1:29:e0:96:5e:36:07:
                    e7:2a:fa:70:8f:fa:d1:eb:72:ad:ec:4d:b8:08:d3:
                    74:20:d0:76:ab:0f:fe:a6:77:f4:02:ed:70:02:8c:
                    ba:2c:20:47:4b:89:52:60:7f:7e:a0:85:c7:7e:36:
                    bc:8c:f2:44:56:15:48:0a:85:4e:e9:d7:56:73:9e:
                    e0:52:34:be:38:19:62:af:d1:40:b2:7b:7c:bb:ac:
                    b0:50:67:b4:5e:0b:50:5f:38:c7:ea:3f:88:e1:c8:
                    6a:c2:d3:76:a6:e4:df:b9:d6:cb:55:b2:86:19:43:
                    18:14:13:ab:8e:5f:11:ca:37:22:58:57:63:50:16:
                    2b:15
                Exponent: 65537 (0x10001)
        X509v3 extensions:
            X509v3 Basic Constraints: 
                CA:FALSE
            X509v3 Key Usage: 
                Digital Signature, Data Encipherment
            X509v3 Extended Key Usage: 
                TLS Web Client Authentication
            Netscape Comment: 
                OpenSSL Generated Certificate
            X509v3 Subject Key Identifier: 
                5A:0A:8C:F5:EC:2F:5B:D3:F3:03:A5:EC:98:80:0E:6E:08:91:D8:A3
            X509v3 Authority Key Identifier: 
                9F:44:95:CF:F0:C7:F0:AA:86:22:3B:CD:EA:30:E7:DF:C2:14:EB:C4
            X509v3 CRL Distribution Points: 
                Full Name:
                  URI:http://192.168.21.89/rootcrl.pem
    Signature Algorithm: sha1WithRSAEncryption
    Signature Value:
        1f:aa:ee:d5:b1:18:f2:fd:a6:9e:c1:98:b2:83:f8:85:4a:dc:
        7e:c4:e1:ad:53:c9:c6:5c:51:cc:3c:76:d9:02:20:c8:21:bf:
        d5:1f:c1:65:3e:1f:92:3f:37:5b:c5:6c:52:1f:0b:36:ff:7b:
        7e:b6:57:e6:c9:a9:74:51:cc:d8:d5:79:15:ad:3c:37:61:6d:
        d3:a0:b7:a5:ea:82:e7:a6:3b:01:a2:bd:2e:a4:ea:93:01:4a:
        dd:9a:69:a9:74:8e:7b:9a:05:3b:b9:d0:ac:22:5e:78:19:b3:
        9b:1c:e2:aa:f2:76:5c:67:f4:87:b6:04:26:48:a2:aa:f3:20:
        74:c8:6a:d1:d7:35:ef:ea:7c:0f:90:89:7a:39:7c:f0:58:6b:
        ae:cd:41:26:8d:68:77:bf:7b:09:5c:fd:94:e2:36:56:1b:47:
        af:d9:47:ba:14:a9:48:5a:e3:d3:09:d5:f9:3f:04:22:1e:ad:
        2a:c3:96:0d:83:fe:e7:2e:da:7f:ea:b8:85:83:bc:0e:85:59:
        f9:7b:f8:6e:7a:ab:87:5e:0f:78:b2:fe:1f:aa:20:1f:8d:6d:
        49:fe:a5:b7:ee:dd:00:3f:ed:44:16:54:0a:e1:c6:7f:ed:ee:
        1a:ee:13:97:cc:e0:b1:ff:7a:88:cd:21:ad:30:8d:09:84:af:
        24:37:b4:d1
-----BEGIN CERTIFICATE-----
MIIEQDCCAyigAwIBAgIBAjANBgkqhkiG9w0BAQUFADCBiTELMAkGA1UEBhMCQkEx
CzAJBgNVBAgTAlJTMRMwEQYDVQQHEwpCYW5qYSBMdWthMSEwHwYDVQQKExhFbGVr
dHJvdGVobmlja2kgZmFrdWx0ZXQxDDAKBgNVBAsTA0VURjELMAkGA1UEAxMCQ0Ex
GjAYBgkqhkiG9w0BCQEWC2NhQG1haWwuY29tMB4XDTIzMDIwNDIxMjUyOFoXDTIz
MDgwNTIxMjUyOFowaTELMAkGA1UEBhMCQkExCzAJBgNVBAgTAlJTMQwwCgYDVQQK
EwNFVEYxDDAKBgNVBAsTA0VURjEQMA4GA1UEAxMHa2xpamVudDEfMB0GCSqGSIb3
DQEJARYQa2xpamVudEBtYWlsLmNvbTCCASIwDQYJKoZIhvcNAQEBBQADggEPADCC
AQoCggEBAMkV6I8P5bFfbsKiRdBEJvmOPJde+0FvEd9aoOznxSZU5aBnwKXaOzBG
vtparA5twLOExA/lgSlCRGjbfKDzv5UYXtxl0E8wvApC1VpCsJJiXM3Y0IThxypU
H9sTXNUcIBxzsDnwXXkn12n4/H8MFrkoL+KZmMQw63l/PzzqnpTRKeCWXjYH5yr6
cI/60etyrexNuAjTdCDQdqsP/qZ39ALtcAKMuiwgR0uJUmB/fqCFx342vIzyRFYV
SAqFTunXVnOe4FI0vjgZYq/RQLJ7fLussFBntF4LUF84x+o/iOHIasLTdqbk37nW
y1WyhhlDGBQTq45fEco3IlhXY1AWKxUCAwEAAaOB0TCBzjAJBgNVHRMEAjAAMAsG
A1UdDwQEAwIEkDATBgNVHSUEDDAKBggrBgEFBQcDAjAsBglghkgBhvhCAQ0EHxYd
T3BlblNTTCBHZW5lcmF0ZWQgQ2VydGlmaWNhdGUwHQYDVR0OBBYEFFoKjPXsL1vT
8wOl7JiADm4IkdijMB8GA1UdIwQYMBaAFJ9Elc/wx/CqhiI7zeow59/CFOvEMDEG
A1UdHwQqMCgwJqAkoCKGIGh0dHA6Ly8xOTIuMTY4LjIxLjg5L3Jvb3RjcmwucGVt
MA0GCSqGSIb3DQEBBQUAA4IBAQAfqu7VsRjy/aaewZiyg/iFStx+xOGtU8nGXFHM
PHbZAiDIIb/VH8FlPh+SPzdbxWxSHws2/3t+tlfmyal0UczY1XkVrTw3YW3ToLel
6oLnpjsBor0upOqTAUrdmmmpdI57mgU7udCsIl54GbObHOKq8nZcZ/SHtgQmSKKq
8yB0yGrR1zXv6nwPkIl6OXzwWGuuzUEmjWh3v3sJXP2U4jZWG0ev2Ue6FKlIWuPT
CdX5PwQiHq0qw5YNg/7nLtp/6riFg7wOhVn5e/huequHXg94sv4fqiAfjW1J/qW3
7t0AP+1EFlQK4cZ/7e4a7hOXzOCx/3qIzSGtMI0JhK8kN7TR
-----END CERTIFICATE-----
