Certificate:
    Data:
        Version: 3 (0x2)
        Serial Number: 6 (0x6)
        Signature Algorithm: sha1WithRSAEncryption
        Issuer: C=BA, ST=RS, L=Banja Luka, O=Elektrotehnicki fakultet, OU=ETF, CN=CA/emailAddress=ca@mail.com
        Validity
            Not Before: Feb  6 00:50:58 2023 GMT
            Not After : Aug  7 00:50:58 2023 GMT
        Subject: C=BA, ST=RS, O=ETF, OU=ETF, CN=nemanja/emailAddress=nemanja@mail.com
        Subject Public Key Info:
            Public Key Algorithm: rsaEncryption
                Public-Key: (2048 bit)
                Modulus:
                    00:a8:ce:b3:c0:a5:f3:ba:b9:4a:44:dc:f9:ec:af:
                    de:00:6d:e4:ae:28:c1:eb:99:a8:1b:2f:95:2e:ce:
                    fd:78:3e:18:42:11:af:8f:17:0c:cd:15:c2:51:1f:
                    59:78:5f:b5:c1:fd:48:18:a4:10:1d:90:a2:ad:ec:
                    75:09:16:95:75:16:d6:e4:c6:0d:a1:16:6e:05:e2:
                    c7:35:69:ce:5d:8e:9e:ea:1a:a6:39:8f:a8:52:14:
                    ed:64:8f:05:13:23:0f:b0:2d:74:2e:fa:26:f9:53:
                    9a:e5:32:0c:d2:fc:a5:b6:17:7f:11:3b:b9:40:93:
                    f6:07:99:b2:8d:52:86:70:e7:46:39:3b:69:ac:d5:
                    9a:68:5e:87:58:49:60:68:be:5e:13:fa:48:3b:90:
                    51:b9:ff:6d:42:dd:e9:f4:37:ce:84:c4:bc:33:ff:
                    62:a8:3c:75:0e:a7:7f:14:a7:3b:20:b8:37:da:c5:
                    2d:96:4f:07:0a:53:47:52:21:c2:5e:ca:20:99:20:
                    9f:da:eb:7c:f2:93:00:da:0f:da:9c:2d:75:71:8f:
                    1c:5f:b3:ef:f5:63:ec:cf:8b:11:d1:33:8a:8b:8f:
                    25:75:9c:9d:6c:7d:4d:81:fc:42:a1:65:56:30:7e:
                    08:8b:7d:2c:3f:f6:2a:bc:0b:ef:80:20:e5:3e:ab:
                    bd:2d
                Exponent: 65537 (0x10001)
        X509v3 extensions:
            X509v3 Basic Constraints: 
                CA:FALSE
            X509v3 Key Usage: 
                Digital Signature, Data Encipherment
            X509v3 Extended Key Usage: 
                TLS Web Client Authentication
            Netscape Comment: 
                OpenSSL Generated Certificate
            X509v3 Subject Key Identifier: 
                69:21:03:24:17:F4:C5:07:7D:45:D2:A7:F5:18:B9:E2:BF:4F:72:6A
            X509v3 Authority Key Identifier: 
                CE:8A:AB:EF:48:AB:8F:9A:2C:D7:2E:F3:9F:58:2A:7B:5B:85:E1:87
            X509v3 CRL Distribution Points: 
                Full Name:
                  URI:http://192.168.21.89/rootcrl.pem
    Signature Algorithm: sha1WithRSAEncryption
    Signature Value:
        03:68:ce:87:a0:3c:9a:1d:39:05:c2:8b:46:44:58:68:96:b8:
        6e:54:58:02:e9:c1:83:fd:ba:80:c5:86:87:df:68:de:24:83:
        ff:30:71:52:02:92:17:49:eb:0a:8e:d4:61:29:20:b5:14:32:
        96:74:31:21:7a:51:a6:74:35:74:f8:b3:88:37:a1:16:1c:c6:
        78:97:a3:a2:d8:7f:a8:90:fa:50:67:6b:72:a2:9e:70:97:74:
        23:de:16:89:a6:80:8d:3d:96:a3:9c:82:fc:8b:8c:92:bc:4b:
        08:72:fa:98:bf:ce:b8:f9:9a:d7:8d:9e:1d:f9:d5:28:ba:4d:
        2a:c9:29:eb:ce:76:72:d1:10:29:23:dd:bf:99:9c:20:e2:50:
        58:1a:77:96:b3:32:96:2e:db:6b:34:fb:77:f4:6c:1d:25:a7:
        82:3b:80:50:2d:a8:c3:97:92:14:3d:f4:4e:20:c7:dd:5f:57:
        c9:d1:87:ba:82:cd:44:bc:dc:e2:ab:16:4a:84:bc:f5:a5:3c:
        d8:86:72:9a:03:d0:08:93:c1:ed:cb:0d:9b:de:03:16:99:eb:
        4a:e9:b4:2f:02:b8:d2:43:45:44:3b:e9:da:d3:82:82:a7:0a:
        6c:58:08:24:06:05:98:93:60:4a:91:0c:83:64:ce:a8:59:d3:
        f6:0c:a5:32
-----BEGIN CERTIFICATE-----
MIIEQDCCAyigAwIBAgIBBjANBgkqhkiG9w0BAQUFADCBiTELMAkGA1UEBhMCQkEx
CzAJBgNVBAgTAlJTMRMwEQYDVQQHEwpCYW5qYSBMdWthMSEwHwYDVQQKExhFbGVr
dHJvdGVobmlja2kgZmFrdWx0ZXQxDDAKBgNVBAsTA0VURjELMAkGA1UEAxMCQ0Ex
GjAYBgkqhkiG9w0BCQEWC2NhQG1haWwuY29tMB4XDTIzMDIwNjAwNTA1OFoXDTIz
MDgwNzAwNTA1OFowaTELMAkGA1UEBhMCQkExCzAJBgNVBAgTAlJTMQwwCgYDVQQK
EwNFVEYxDDAKBgNVBAsTA0VURjEQMA4GA1UEAxMHbmVtYW5qYTEfMB0GCSqGSIb3
DQEJARYQbmVtYW5qYUBtYWlsLmNvbTCCASIwDQYJKoZIhvcNAQEBBQADggEPADCC
AQoCggEBAKjOs8Cl87q5SkTc+eyv3gBt5K4oweuZqBsvlS7O/Xg+GEIRr48XDM0V
wlEfWXhftcH9SBikEB2Qoq3sdQkWlXUW1uTGDaEWbgXixzVpzl2OnuoapjmPqFIU
7WSPBRMjD7AtdC76JvlTmuUyDNL8pbYXfxE7uUCT9geZso1ShnDnRjk7aazVmmhe
h1hJYGi+XhP6SDuQUbn/bULd6fQ3zoTEvDP/Yqg8dQ6nfxSnOyC4N9rFLZZPBwpT
R1Ihwl7KIJkgn9rrfPKTANoP2pwtdXGPHF+z7/Vj7M+LEdEziouPJXWcnWx9TYH8
QqFlVjB+CIt9LD/2KrwL74Ag5T6rvS0CAwEAAaOB0TCBzjAJBgNVHRMEAjAAMAsG
A1UdDwQEAwIEkDATBgNVHSUEDDAKBggrBgEFBQcDAjAsBglghkgBhvhCAQ0EHxYd
T3BlblNTTCBHZW5lcmF0ZWQgQ2VydGlmaWNhdGUwHQYDVR0OBBYEFGkhAyQX9MUH
fUXSp/UYueK/T3JqMB8GA1UdIwQYMBaAFM6Kq+9Iq4+aLNcu859YKntbheGHMDEG
A1UdHwQqMCgwJqAkoCKGIGh0dHA6Ly8xOTIuMTY4LjIxLjg5L3Jvb3RjcmwucGVt
MA0GCSqGSIb3DQEBBQUAA4IBAQADaM6HoDyaHTkFwotGRFholrhuVFgC6cGD/bqA
xYaH32jeJIP/MHFSApIXSesKjtRhKSC1FDKWdDEhelGmdDV0+LOIN6EWHMZ4l6Oi
2H+okPpQZ2tyop5wl3Qj3haJpoCNPZajnIL8i4ySvEsIcvqYv864+ZrXjZ4d+dUo
uk0qySnrznZy0RApI92/mZwg4lBYGneWszKWLttrNPt39GwdJaeCO4BQLajDl5IU
PfROIMfdX1fJ0Ye6gs1EvNziqxZKhLz1pTzYhnKaA9AIk8Htyw2b3gMWmetK6bQv
ArjSQ0VEO+na04KCpwpsWAgkBgWYk2BKkQyDZM6oWdP2DKUy
-----END CERTIFICATE-----
