Certificate:
    Data:
        Version: 3 (0x2)
        Serial Number: 1 (0x1)
        Signature Algorithm: sha1WithRSAEncryption
        Issuer: C=BA, ST=RS, L=Banja Luka, O=Elektrotehnicki fakultet, OU=ETF, CN=CA/emailAddress=ca@mail.com
        Validity
            Not Before: Feb  3 18:58:56 2023 GMT
            Not After : Aug  4 18:58:56 2023 GMT
        Subject: C=BA, ST=RS, O=ETF, OU=ETF, CN=frke/emailAddress=nemanja@mail.com
        Subject Public Key Info:
            Public Key Algorithm: rsaEncryption
                Public-Key: (2048 bit)
                Modulus:
                    00:c0:0d:0d:0d:14:fe:da:5b:0c:ec:df:3c:8d:5e:
                    eb:23:f8:d9:aa:a9:79:9f:60:9c:85:54:c7:8a:b4:
                    29:2f:59:3b:bc:3d:ea:21:5b:fa:17:83:8c:ae:d4:
                    bd:c3:15:ad:4e:e9:ca:36:15:a9:08:51:be:89:e4:
                    1d:b1:7e:08:66:4a:17:90:0c:85:93:f4:b3:f7:00:
                    12:48:1e:3e:99:6a:d3:4e:58:e1:66:44:aa:d9:53:
                    88:39:69:0b:63:18:1a:58:a7:9a:c0:04:69:3f:d3:
                    8b:f2:9a:c5:e7:b0:36:2e:e1:cb:ae:97:3d:a5:85:
                    f8:cf:0a:b5:f8:f1:5b:a4:7f:d0:78:a5:94:cc:e2:
                    99:fe:fe:31:b2:18:12:00:ea:c1:4f:c7:95:3f:06:
                    c7:cc:b2:59:72:14:d4:40:be:89:ad:56:19:79:14:
                    55:ac:19:d5:1e:c7:eb:e1:35:bf:54:0f:b2:3b:9d:
                    14:64:3a:b4:05:e3:73:1b:7d:41:c7:d2:ec:c2:46:
                    7e:a8:01:bc:22:f0:4c:09:32:20:b3:d4:b6:b0:f0:
                    5d:08:89:3e:e7:1f:b1:4e:cd:93:87:e3:21:d8:71:
                    db:64:d6:82:4f:1d:b6:b0:f9:4d:43:2f:90:f7:16:
                    e8:35:9c:ab:1d:01:90:fa:b4:6f:05:0f:7d:fb:05:
                    4b:55
                Exponent: 65537 (0x10001)
        X509v3 extensions:
            X509v3 Basic Constraints: 
                CA:FALSE
            X509v3 Key Usage: 
                Digital Signature, Data Encipherment
            X509v3 Extended Key Usage: 
                TLS Web Client Authentication
            Netscape Comment: 
                OpenSSL Generated Certificate
            X509v3 Subject Key Identifier: 
                36:F2:14:80:C4:36:59:8C:99:4B:87:A2:B4:C6:7C:E9:FC:88:6D:BE
            X509v3 Authority Key Identifier: 
                9F:44:95:CF:F0:C7:F0:AA:86:22:3B:CD:EA:30:E7:DF:C2:14:EB:C4
            X509v3 CRL Distribution Points: 
                Full Name:
                  URI:http://192.168.21.89/rootcrl.pem
    Signature Algorithm: sha1WithRSAEncryption
    Signature Value:
        03:18:bf:ca:0d:93:bf:95:80:3f:11:0d:8e:58:58:53:d0:0c:
        6e:18:0d:2c:a1:4d:5f:4e:1d:8a:50:67:51:e8:c6:59:24:0e:
        67:ed:5e:63:36:e9:32:f0:8c:3e:b6:fe:e2:b0:18:e7:0e:38:
        d9:4c:dc:1a:bd:2b:13:bb:18:d1:bc:e1:aa:60:9c:93:6a:af:
        0e:cc:a8:bc:73:89:04:f7:aa:f1:1a:43:49:03:6a:43:36:4e:
        32:48:b9:71:d3:0f:db:04:0b:97:1a:90:67:72:7d:47:c0:64:
        d8:fe:86:d8:85:eb:f0:5f:7a:f7:5e:c3:a3:80:ff:40:cf:7d:
        2d:5d:a8:93:07:d6:d8:1e:ee:4b:1d:b2:37:1a:3d:a9:af:7b:
        f1:59:2c:ea:00:0a:9a:6c:37:c9:cf:82:61:f0:24:39:a3:d3:
        74:90:c8:98:16:74:1a:55:72:53:a7:07:2e:66:a8:bf:17:01:
        56:5c:51:19:07:ad:96:9d:e2:66:0c:ea:39:20:de:86:23:e0:
        ed:ea:4e:13:d4:3d:00:15:cf:e0:ec:97:2e:65:ac:cf:7b:66:
        e3:68:8c:65:f9:a4:be:b0:ec:07:b2:67:a7:af:9a:aa:a9:49:
        7a:9a:77:4d:11:11:a4:4f:d9:4b:45:7d:50:32:1f:2b:f1:ad:
        c8:db:fe:4b
-----BEGIN CERTIFICATE-----
MIIEPTCCAyWgAwIBAgIBATANBgkqhkiG9w0BAQUFADCBiTELMAkGA1UEBhMCQkEx
CzAJBgNVBAgTAlJTMRMwEQYDVQQHEwpCYW5qYSBMdWthMSEwHwYDVQQKExhFbGVr
dHJvdGVobmlja2kgZmFrdWx0ZXQxDDAKBgNVBAsTA0VURjELMAkGA1UEAxMCQ0Ex
GjAYBgkqhkiG9w0BCQEWC2NhQG1haWwuY29tMB4XDTIzMDIwMzE4NTg1NloXDTIz
MDgwNDE4NTg1NlowZjELMAkGA1UEBhMCQkExCzAJBgNVBAgTAlJTMQwwCgYDVQQK
EwNFVEYxDDAKBgNVBAsTA0VURjENMAsGA1UEAxMEZnJrZTEfMB0GCSqGSIb3DQEJ
ARYQbmVtYW5qYUBtYWlsLmNvbTCCASIwDQYJKoZIhvcNAQEBBQADggEPADCCAQoC
ggEBAMANDQ0U/tpbDOzfPI1e6yP42aqpeZ9gnIVUx4q0KS9ZO7w96iFb+heDjK7U
vcMVrU7pyjYVqQhRvonkHbF+CGZKF5AMhZP0s/cAEkgePplq005Y4WZEqtlTiDlp
C2MYGlinmsAEaT/Ti/KaxeewNi7hy66XPaWF+M8KtfjxW6R/0HillMzimf7+MbIY
EgDqwU/HlT8Gx8yyWXIU1EC+ia1WGXkUVawZ1R7H6+E1v1QPsjudFGQ6tAXjcxt9
QcfS7MJGfqgBvCLwTAkyILPUtrDwXQiJPucfsU7Nk4fjIdhx22TWgk8dtrD5TUMv
kPcW6DWcqx0BkPq0bwUPffsFS1UCAwEAAaOB0TCBzjAJBgNVHRMEAjAAMAsGA1Ud
DwQEAwIEkDATBgNVHSUEDDAKBggrBgEFBQcDAjAsBglghkgBhvhCAQ0EHxYdT3Bl
blNTTCBHZW5lcmF0ZWQgQ2VydGlmaWNhdGUwHQYDVR0OBBYEFDbyFIDENlmMmUuH
orTGfOn8iG2+MB8GA1UdIwQYMBaAFJ9Elc/wx/CqhiI7zeow59/CFOvEMDEGA1Ud
HwQqMCgwJqAkoCKGIGh0dHA6Ly8xOTIuMTY4LjIxLjg5L3Jvb3RjcmwucGVtMA0G
CSqGSIb3DQEBBQUAA4IBAQADGL/KDZO/lYA/EQ2OWFhT0AxuGA0soU1fTh2KUGdR
6MZZJA5n7V5jNuky8Iw+tv7isBjnDjjZTNwavSsTuxjRvOGqYJyTaq8OzKi8c4kE
96rxGkNJA2pDNk4ySLlx0w/bBAuXGpBncn1HwGTY/obYhevwX3r3XsOjgP9Az30t
XaiTB9bYHu5LHbI3Gj2pr3vxWSzqAAqabDfJz4Jh8CQ5o9N0kMiYFnQaVXJTpwcu
Zqi/FwFWXFEZB62WneJmDOo5IN6GI+Dt6k4T1D0AFc/g7JcuZazPe2bjaIxl+aS+
sOwHsmenr5qqqUl6mndNERGkT9lLRX1QMh8r8a3I2/5L
-----END CERTIFICATE-----
