Certificate:
    Data:
        Version: 3 (0x2)
        Serial Number: 4 (0x4)
        Signature Algorithm: sha1WithRSAEncryption
        Issuer: C=BA, ST=RS, L=Banja Luka, O=Elektrotehnicki fakultet, OU=ETF, CN=CA/emailAddress=ca@mail.com
        Validity
            Not Before: Feb  6 00:45:35 2023 GMT
            Not After : Aug  7 00:45:35 2023 GMT
        Subject: C=BA, ST=RS, O=ETF, OU=ETF, CN=nemanja/emailAddress=nemanja@mail.com
        Subject Public Key Info:
            Public Key Algorithm: rsaEncryption
                Public-Key: (2048 bit)
                Modulus:
                    00:a8:ce:b3:c0:a5:f3:ba:b9:4a:44:dc:f9:ec:af:
                    de:00:6d:e4:ae:28:c1:eb:99:a8:1b:2f:95:2e:ce:
                    fd:78:3e:18:42:11:af:8f:17:0c:cd:15:c2:51:1f:
                    59:78:5f:b5:c1:fd:48:18:a4:10:1d:90:a2:ad:ec:
                    75:09:16:95:75:16:d6:e4:c6:0d:a1:16:6e:05:e2:
                    c7:35:69:ce:5d:8e:9e:ea:1a:a6:39:8f:a8:52:14:
                    ed:64:8f:05:13:23:0f:b0:2d:74:2e:fa:26:f9:53:
                    9a:e5:32:0c:d2:fc:a5:b6:17:7f:11:3b:b9:40:93:
                    f6:07:99:b2:8d:52:86:70:e7:46:39:3b:69:ac:d5:
                    9a:68:5e:87:58:49:60:68:be:5e:13:fa:48:3b:90:
                    51:b9:ff:6d:42:dd:e9:f4:37:ce:84:c4:bc:33:ff:
                    62:a8:3c:75:0e:a7:7f:14:a7:3b:20:b8:37:da:c5:
                    2d:96:4f:07:0a:53:47:52:21:c2:5e:ca:20:99:20:
                    9f:da:eb:7c:f2:93:00:da:0f:da:9c:2d:75:71:8f:
                    1c:5f:b3:ef:f5:63:ec:cf:8b:11:d1:33:8a:8b:8f:
                    25:75:9c:9d:6c:7d:4d:81:fc:42:a1:65:56:30:7e:
                    08:8b:7d:2c:3f:f6:2a:bc:0b:ef:80:20:e5:3e:ab:
                    bd:2d
                Exponent: 65537 (0x10001)
        X509v3 extensions:
            X509v3 Basic Constraints: 
                CA:FALSE
            X509v3 Key Usage: 
                Digital Signature, Data Encipherment
            X509v3 Extended Key Usage: 
                TLS Web Client Authentication
            Netscape Comment: 
                OpenSSL Generated Certificate
            X509v3 Subject Key Identifier: 
                69:21:03:24:17:F4:C5:07:7D:45:D2:A7:F5:18:B9:E2:BF:4F:72:6A
            X509v3 Authority Key Identifier: 
                CE:8A:AB:EF:48:AB:8F:9A:2C:D7:2E:F3:9F:58:2A:7B:5B:85:E1:87
            X509v3 CRL Distribution Points: 
                Full Name:
                  URI:http://192.168.21.89/rootcrl.pem
    Signature Algorithm: sha1WithRSAEncryption
    Signature Value:
        2c:13:9c:54:bc:42:76:42:ad:b8:1f:53:0a:65:6b:90:f5:88:
        dd:f5:b7:79:7c:76:12:7a:8a:26:d1:5e:d5:78:59:2d:e4:2c:
        a9:51:18:a5:5a:99:bb:a6:54:eb:07:1e:7c:f4:c9:e3:d9:fa:
        3f:87:34:3f:21:23:27:5f:00:0b:ae:a2:53:18:4d:55:d4:2d:
        fa:e6:61:1e:c2:67:87:97:38:1a:6d:f1:b1:b2:90:ad:bc:41:
        a9:85:e1:5d:ba:52:9c:d1:42:02:31:91:4a:d9:28:f7:2a:2d:
        2f:37:be:6e:d9:d6:2f:0e:55:8e:15:83:65:64:4c:f0:cc:6d:
        e4:21:b0:56:db:82:39:0e:69:ac:ff:87:82:0b:e9:10:c8:ca:
        9a:15:ea:57:6f:d1:47:4b:db:37:73:89:bd:82:16:6d:cf:da:
        78:00:a9:e0:36:a4:52:70:e3:c6:75:17:91:1e:86:47:0f:3d:
        20:bc:4c:93:ab:7c:f2:b9:51:66:97:25:91:6a:69:24:21:6e:
        44:36:b4:44:89:81:09:5d:fd:dc:d6:d9:58:01:27:c5:68:24:
        6c:bb:66:ba:01:87:c9:7c:3b:91:9f:4b:3b:e6:d3:0e:dd:d5:
        fb:fb:9c:4d:d8:c8:06:6c:fc:ee:4e:da:4d:75:13:96:cb:aa:
        7f:df:71:6f
-----BEGIN CERTIFICATE-----
MIIEQDCCAyigAwIBAgIBBDANBgkqhkiG9w0BAQUFADCBiTELMAkGA1UEBhMCQkEx
CzAJBgNVBAgTAlJTMRMwEQYDVQQHEwpCYW5qYSBMdWthMSEwHwYDVQQKExhFbGVr
dHJvdGVobmlja2kgZmFrdWx0ZXQxDDAKBgNVBAsTA0VURjELMAkGA1UEAxMCQ0Ex
GjAYBgkqhkiG9w0BCQEWC2NhQG1haWwuY29tMB4XDTIzMDIwNjAwNDUzNVoXDTIz
MDgwNzAwNDUzNVowaTELMAkGA1UEBhMCQkExCzAJBgNVBAgTAlJTMQwwCgYDVQQK
EwNFVEYxDDAKBgNVBAsTA0VURjEQMA4GA1UEAxMHbmVtYW5qYTEfMB0GCSqGSIb3
DQEJARYQbmVtYW5qYUBtYWlsLmNvbTCCASIwDQYJKoZIhvcNAQEBBQADggEPADCC
AQoCggEBAKjOs8Cl87q5SkTc+eyv3gBt5K4oweuZqBsvlS7O/Xg+GEIRr48XDM0V
wlEfWXhftcH9SBikEB2Qoq3sdQkWlXUW1uTGDaEWbgXixzVpzl2OnuoapjmPqFIU
7WSPBRMjD7AtdC76JvlTmuUyDNL8pbYXfxE7uUCT9geZso1ShnDnRjk7aazVmmhe
h1hJYGi+XhP6SDuQUbn/bULd6fQ3zoTEvDP/Yqg8dQ6nfxSnOyC4N9rFLZZPBwpT
R1Ihwl7KIJkgn9rrfPKTANoP2pwtdXGPHF+z7/Vj7M+LEdEziouPJXWcnWx9TYH8
QqFlVjB+CIt9LD/2KrwL74Ag5T6rvS0CAwEAAaOB0TCBzjAJBgNVHRMEAjAAMAsG
A1UdDwQEAwIEkDATBgNVHSUEDDAKBggrBgEFBQcDAjAsBglghkgBhvhCAQ0EHxYd
T3BlblNTTCBHZW5lcmF0ZWQgQ2VydGlmaWNhdGUwHQYDVR0OBBYEFGkhAyQX9MUH
fUXSp/UYueK/T3JqMB8GA1UdIwQYMBaAFM6Kq+9Iq4+aLNcu859YKntbheGHMDEG
A1UdHwQqMCgwJqAkoCKGIGh0dHA6Ly8xOTIuMTY4LjIxLjg5L3Jvb3RjcmwucGVt
MA0GCSqGSIb3DQEBBQUAA4IBAQAsE5xUvEJ2Qq24H1MKZWuQ9Yjd9bd5fHYSeoom
0V7VeFkt5CypURilWpm7plTrBx589Mnj2fo/hzQ/ISMnXwALrqJTGE1V1C365mEe
wmeHlzgabfGxspCtvEGpheFdulKc0UICMZFK2Sj3Ki0vN75u2dYvDlWOFYNlZEzw
zG3kIbBW24I5Dmms/4eCC+kQyMqaFepXb9FHS9s3c4m9ghZtz9p4AKngNqRScOPG
dReRHoZHDz0gvEyTq3zyuVFmlyWRamkkIW5ENrREiYEJXf3c1tlYASfFaCRsu2a6
AYfJfDuRn0s75tMO3dX7+5xN2MgGbPzuTtpNdROWy6p/33Fv
-----END CERTIFICATE-----
