Certificate:
    Data:
        Version: 3 (0x2)
        Serial Number: 5 (0x5)
        Signature Algorithm: sha1WithRSAEncryption
        Issuer: C=BA, ST=RS, L=Banja Luka, O=Elektrotehnicki fakultet, OU=ETF, CN=CA/emailAddress=ca@mail.com
        Validity
            Not Before: Feb  6 00:47:02 2023 GMT
            Not After : Aug  7 00:47:02 2023 GMT
        Subject: C=BA, ST=RS, O=ETF, OU=ETF, CN=mika/emailAddress=mika@mail.com
        Subject Public Key Info:
            Public Key Algorithm: rsaEncryption
                Public-Key: (2048 bit)
                Modulus:
                    00:a7:95:22:b7:b1:de:54:34:b9:d6:77:48:36:e1:
                    cb:a9:ef:d0:03:98:71:66:fc:70:17:25:71:e9:ab:
                    14:84:65:ff:65:18:6d:0a:e1:38:af:60:74:96:5d:
                    67:20:b1:e5:9d:cd:12:55:7b:62:51:14:79:c3:0a:
                    0a:36:fe:0f:5c:a5:42:5d:e4:4a:a0:dd:ad:e6:f2:
                    1e:ad:5a:fb:18:62:c1:53:93:09:0f:bd:bf:6b:b9:
                    a4:dd:12:a9:63:e5:d7:1d:10:e6:e6:ec:0c:50:08:
                    08:74:b9:80:8a:fe:7b:fa:ad:6f:ce:eb:df:b0:14:
                    a2:2f:00:9e:2f:d7:c4:a8:fe:65:40:8f:2d:0d:ac:
                    e5:65:ac:66:f2:55:b8:c9:31:6d:f9:25:2b:dc:7c:
                    9d:3c:82:9e:36:12:4d:19:4b:43:5f:c6:8d:bd:98:
                    96:0d:57:4e:a1:90:e9:fe:37:ba:c2:3e:f6:bb:68:
                    a9:4c:20:59:cc:18:f0:9a:6d:7a:ef:c8:3e:eb:97:
                    c1:93:94:57:5c:f5:e0:8d:22:bf:b9:75:88:82:b9:
                    19:36:2c:a3:f3:ef:f5:cc:3f:c6:44:3d:3e:f6:63:
                    68:6b:73:38:c3:e5:87:7a:61:92:d9:94:bf:26:2f:
                    5e:1c:b9:00:ca:80:74:6d:a4:4b:51:07:45:df:9f:
                    ce:87
                Exponent: 65537 (0x10001)
        X509v3 extensions:
            X509v3 Basic Constraints: 
                CA:FALSE
            X509v3 Key Usage: 
                Digital Signature, Data Encipherment
            X509v3 Extended Key Usage: 
                TLS Web Client Authentication
            Netscape Comment: 
                OpenSSL Generated Certificate
            X509v3 Subject Key Identifier: 
                AB:AF:58:7E:28:17:64:81:A4:AE:0E:1C:66:5D:22:24:D8:0B:29:A8
            X509v3 Authority Key Identifier: 
                CE:8A:AB:EF:48:AB:8F:9A:2C:D7:2E:F3:9F:58:2A:7B:5B:85:E1:87
            X509v3 CRL Distribution Points: 
                Full Name:
                  URI:http://192.168.21.89/rootcrl.pem
    Signature Algorithm: sha1WithRSAEncryption
    Signature Value:
        ac:c5:8b:05:6f:b2:f6:18:a7:4b:d3:13:11:2b:62:a0:ed:f0:
        d9:a5:88:de:ff:25:d4:b0:37:e8:1b:34:50:79:99:83:46:58:
        a5:78:9d:de:d6:f9:f5:4e:33:ec:6b:94:97:d8:cb:24:28:9f:
        c0:93:09:06:9b:ba:46:66:45:7a:7a:6d:8d:44:9f:aa:f9:48:
        a3:98:2c:01:fa:16:af:1a:aa:05:6f:30:a1:a1:60:23:36:ed:
        2b:5f:7a:28:b4:15:25:7b:10:47:98:69:6c:bf:67:2b:74:30:
        85:96:61:78:c4:8b:ff:95:57:7a:61:a2:0d:a3:d5:c4:59:24:
        0d:a3:51:c3:99:56:a2:d5:ef:00:57:a9:58:88:1f:21:d1:77:
        ea:71:a7:b5:2e:4c:ff:d2:4f:f6:e9:58:ba:60:f3:0d:11:70:
        d5:48:a8:3f:29:4c:68:d9:e4:93:af:74:73:39:89:79:b3:1a:
        a4:53:c1:bf:c7:43:6b:07:b9:de:73:2a:47:e4:73:f9:8a:8d:
        46:46:dd:77:42:e6:f1:80:28:87:14:8f:ef:cb:ca:71:83:5b:
        d6:17:69:d8:85:c4:79:1c:35:56:7d:eb:4a:76:98:75:2a:04:
        7a:c7:7e:62:37:1a:8e:9e:26:f6:b2:d8:68:ae:ad:b2:5e:3a:
        32:c0:96:dc
-----BEGIN CERTIFICATE-----
MIIEOjCCAyKgAwIBAgIBBTANBgkqhkiG9w0BAQUFADCBiTELMAkGA1UEBhMCQkEx
CzAJBgNVBAgTAlJTMRMwEQYDVQQHEwpCYW5qYSBMdWthMSEwHwYDVQQKExhFbGVr
dHJvdGVobmlja2kgZmFrdWx0ZXQxDDAKBgNVBAsTA0VURjELMAkGA1UEAxMCQ0Ex
GjAYBgkqhkiG9w0BCQEWC2NhQG1haWwuY29tMB4XDTIzMDIwNjAwNDcwMloXDTIz
MDgwNzAwNDcwMlowYzELMAkGA1UEBhMCQkExCzAJBgNVBAgTAlJTMQwwCgYDVQQK
EwNFVEYxDDAKBgNVBAsTA0VURjENMAsGA1UEAxMEbWlrYTEcMBoGCSqGSIb3DQEJ
ARYNbWlrYUBtYWlsLmNvbTCCASIwDQYJKoZIhvcNAQEBBQADggEPADCCAQoCggEB
AKeVIrex3lQ0udZ3SDbhy6nv0AOYcWb8cBclcemrFIRl/2UYbQrhOK9gdJZdZyCx
5Z3NElV7YlEUecMKCjb+D1ylQl3kSqDdrebyHq1a+xhiwVOTCQ+9v2u5pN0SqWPl
1x0Q5ubsDFAICHS5gIr+e/qtb87r37AUoi8Ani/XxKj+ZUCPLQ2s5WWsZvJVuMkx
bfklK9x8nTyCnjYSTRlLQ1/Gjb2Ylg1XTqGQ6f43usI+9rtoqUwgWcwY8Jpteu/I
PuuXwZOUV1z14I0iv7l1iIK5GTYso/Pv9cw/xkQ9PvZjaGtzOMPlh3phktmUvyYv
Xhy5AMqAdG2kS1EHRd+fzocCAwEAAaOB0TCBzjAJBgNVHRMEAjAAMAsGA1UdDwQE
AwIEkDATBgNVHSUEDDAKBggrBgEFBQcDAjAsBglghkgBhvhCAQ0EHxYdT3BlblNT
TCBHZW5lcmF0ZWQgQ2VydGlmaWNhdGUwHQYDVR0OBBYEFKuvWH4oF2SBpK4OHGZd
IiTYCymoMB8GA1UdIwQYMBaAFM6Kq+9Iq4+aLNcu859YKntbheGHMDEGA1UdHwQq
MCgwJqAkoCKGIGh0dHA6Ly8xOTIuMTY4LjIxLjg5L3Jvb3RjcmwucGVtMA0GCSqG
SIb3DQEBBQUAA4IBAQCsxYsFb7L2GKdL0xMRK2Kg7fDZpYje/yXUsDfoGzRQeZmD
RlileJ3e1vn1TjPsa5SX2MskKJ/AkwkGm7pGZkV6em2NRJ+q+UijmCwB+havGqoF
bzChoWAjNu0rX3ootBUlexBHmGlsv2crdDCFlmF4xIv/lVd6YaINo9XEWSQNo1HD
mVai1e8AV6lYiB8h0Xfqcae1Lkz/0k/26Vi6YPMNEXDVSKg/KUxo2eSTr3RzOYl5
sxqkU8G/x0NrB7necypH5HP5io1GRt13QubxgCiHFI/vy8pxg1vWF2nYhcR5HDVW
fetKdph1KgR6x35iNxqOnib2sthorq2yXjoywJbc
-----END CERTIFICATE-----
