Certificate:
    Data:
        Version: 3 (0x2)
        Serial Number: 7 (0x7)
        Signature Algorithm: sha1WithRSAEncryption
        Issuer: C=BA, ST=RS, L=Banja Luka, O=Elektrotehnicki fakultet, OU=ETF, CN=CA/emailAddress=ca@mail.com
        Validity
            Not Before: Feb  6 00:51:26 2023 GMT
            Not After : Aug  7 00:51:26 2023 GMT
        Subject: C=BA, ST=RS, O=ETF, OU=ETF, CN=mika/emailAddress=mika@mail.com
        Subject Public Key Info:
            Public Key Algorithm: rsaEncryption
                Public-Key: (2048 bit)
                Modulus:
                    00:a7:95:22:b7:b1:de:54:34:b9:d6:77:48:36:e1:
                    cb:a9:ef:d0:03:98:71:66:fc:70:17:25:71:e9:ab:
                    14:84:65:ff:65:18:6d:0a:e1:38:af:60:74:96:5d:
                    67:20:b1:e5:9d:cd:12:55:7b:62:51:14:79:c3:0a:
                    0a:36:fe:0f:5c:a5:42:5d:e4:4a:a0:dd:ad:e6:f2:
                    1e:ad:5a:fb:18:62:c1:53:93:09:0f:bd:bf:6b:b9:
                    a4:dd:12:a9:63:e5:d7:1d:10:e6:e6:ec:0c:50:08:
                    08:74:b9:80:8a:fe:7b:fa:ad:6f:ce:eb:df:b0:14:
                    a2:2f:00:9e:2f:d7:c4:a8:fe:65:40:8f:2d:0d:ac:
                    e5:65:ac:66:f2:55:b8:c9:31:6d:f9:25:2b:dc:7c:
                    9d:3c:82:9e:36:12:4d:19:4b:43:5f:c6:8d:bd:98:
                    96:0d:57:4e:a1:90:e9:fe:37:ba:c2:3e:f6:bb:68:
                    a9:4c:20:59:cc:18:f0:9a:6d:7a:ef:c8:3e:eb:97:
                    c1:93:94:57:5c:f5:e0:8d:22:bf:b9:75:88:82:b9:
                    19:36:2c:a3:f3:ef:f5:cc:3f:c6:44:3d:3e:f6:63:
                    68:6b:73:38:c3:e5:87:7a:61:92:d9:94:bf:26:2f:
                    5e:1c:b9:00:ca:80:74:6d:a4:4b:51:07:45:df:9f:
                    ce:87
                Exponent: 65537 (0x10001)
        X509v3 extensions:
            X509v3 Basic Constraints: 
                CA:FALSE
            X509v3 Key Usage: 
                Digital Signature, Data Encipherment
            X509v3 Extended Key Usage: 
                TLS Web Client Authentication
            Netscape Comment: 
                OpenSSL Generated Certificate
            X509v3 Subject Key Identifier: 
                AB:AF:58:7E:28:17:64:81:A4:AE:0E:1C:66:5D:22:24:D8:0B:29:A8
            X509v3 Authority Key Identifier: 
                CE:8A:AB:EF:48:AB:8F:9A:2C:D7:2E:F3:9F:58:2A:7B:5B:85:E1:87
            X509v3 CRL Distribution Points: 
                Full Name:
                  URI:http://192.168.21.89/rootcrl.pem
    Signature Algorithm: sha1WithRSAEncryption
    Signature Value:
        27:fe:11:3f:24:39:c3:83:7a:9f:3c:5e:3e:68:c7:df:b6:3b:
        56:b5:e8:11:2a:46:94:67:71:1d:59:ba:4b:a8:a3:23:fe:6a:
        20:35:80:3e:b7:8e:3f:b2:5f:08:c7:30:b3:ce:0b:e7:c9:f4:
        e1:43:01:26:e6:8b:af:01:fe:5e:a8:1e:d1:d7:fa:0f:99:a7:
        2f:1c:4e:be:3d:c7:cf:4a:26:9a:82:99:63:a7:b3:30:01:52:
        42:a0:77:00:2d:6a:6a:c1:f7:9a:0a:34:0b:3f:3e:47:ea:b2:
        31:30:84:b1:70:0e:ae:45:c7:6f:6d:52:33:91:30:3d:f5:42:
        c5:32:6c:b1:e6:fb:7f:15:1b:d2:98:18:56:8c:18:b1:18:07:
        7f:ed:34:b7:ca:76:29:52:75:8f:80:1c:3c:9d:07:81:90:71:
        02:d7:f3:35:8d:44:12:f2:85:76:f4:13:84:c7:64:73:23:b4:
        28:28:68:e6:10:4f:57:1b:7b:14:8f:ea:1b:9f:80:f2:92:d2:
        95:f5:18:c6:26:93:29:cc:8c:5d:61:39:ef:e5:21:5c:49:7c:
        1f:1d:10:ab:b1:26:8c:9f:aa:05:96:a4:2d:a2:97:2f:bf:e7:
        8d:5a:67:b6:de:00:db:28:ad:7e:ab:4f:77:57:86:88:b3:15:
        dc:73:2e:73
-----BEGIN CERTIFICATE-----
MIIEOjCCAyKgAwIBAgIBBzANBgkqhkiG9w0BAQUFADCBiTELMAkGA1UEBhMCQkEx
CzAJBgNVBAgTAlJTMRMwEQYDVQQHEwpCYW5qYSBMdWthMSEwHwYDVQQKExhFbGVr
dHJvdGVobmlja2kgZmFrdWx0ZXQxDDAKBgNVBAsTA0VURjELMAkGA1UEAxMCQ0Ex
GjAYBgkqhkiG9w0BCQEWC2NhQG1haWwuY29tMB4XDTIzMDIwNjAwNTEyNloXDTIz
MDgwNzAwNTEyNlowYzELMAkGA1UEBhMCQkExCzAJBgNVBAgTAlJTMQwwCgYDVQQK
EwNFVEYxDDAKBgNVBAsTA0VURjENMAsGA1UEAxMEbWlrYTEcMBoGCSqGSIb3DQEJ
ARYNbWlrYUBtYWlsLmNvbTCCASIwDQYJKoZIhvcNAQEBBQADggEPADCCAQoCggEB
AKeVIrex3lQ0udZ3SDbhy6nv0AOYcWb8cBclcemrFIRl/2UYbQrhOK9gdJZdZyCx
5Z3NElV7YlEUecMKCjb+D1ylQl3kSqDdrebyHq1a+xhiwVOTCQ+9v2u5pN0SqWPl
1x0Q5ubsDFAICHS5gIr+e/qtb87r37AUoi8Ani/XxKj+ZUCPLQ2s5WWsZvJVuMkx
bfklK9x8nTyCnjYSTRlLQ1/Gjb2Ylg1XTqGQ6f43usI+9rtoqUwgWcwY8Jpteu/I
PuuXwZOUV1z14I0iv7l1iIK5GTYso/Pv9cw/xkQ9PvZjaGtzOMPlh3phktmUvyYv
Xhy5AMqAdG2kS1EHRd+fzocCAwEAAaOB0TCBzjAJBgNVHRMEAjAAMAsGA1UdDwQE
AwIEkDATBgNVHSUEDDAKBggrBgEFBQcDAjAsBglghkgBhvhCAQ0EHxYdT3BlblNT
TCBHZW5lcmF0ZWQgQ2VydGlmaWNhdGUwHQYDVR0OBBYEFKuvWH4oF2SBpK4OHGZd
IiTYCymoMB8GA1UdIwQYMBaAFM6Kq+9Iq4+aLNcu859YKntbheGHMDEGA1UdHwQq
MCgwJqAkoCKGIGh0dHA6Ly8xOTIuMTY4LjIxLjg5L3Jvb3RjcmwucGVtMA0GCSqG
SIb3DQEBBQUAA4IBAQAn/hE/JDnDg3qfPF4+aMfftjtWtegRKkaUZ3EdWbpLqKMj
/mogNYA+t44/sl8IxzCzzgvnyfThQwEm5ouvAf5eqB7R1/oPmacvHE6+PcfPSiaa
gpljp7MwAVJCoHcALWpqwfeaCjQLPz5H6rIxMISxcA6uRcdvbVIzkTA99ULFMmyx
5vt/FRvSmBhWjBixGAd/7TS3ynYpUnWPgBw8nQeBkHEC1/M1jUQS8oV29BOEx2Rz
I7QoKGjmEE9XG3sUj+obn4DyktKV9RjGJpMpzIxdYTnv5SFcSXwfHRCrsSaMn6oF
lqQtopcvv+eNWme23gDbKK1+q093V4aIsxXccy5z
-----END CERTIFICATE-----
