Certificate:
    Data:
        Version: 3 (0x2)
        Serial Number: 8 (0x8)
        Signature Algorithm: sha1WithRSAEncryption
        Issuer: C=BA, ST=RS, L=Banja Luka, O=Elektrotehnicki fakultet, OU=ETF, CN=CA/emailAddress=ca@mail.com
        Validity
            Not Before: Feb  6 00:55:03 2023 GMT
            Not After : Aug  7 00:55:03 2023 GMT
        Subject: C=BA, ST=RS, O=ETF, OU=ETF, CN=mika/emailAddress=mika@mail.com
        Subject Public Key Info:
            Public Key Algorithm: rsaEncryption
                Public-Key: (2048 bit)
                Modulus:
                    00:a7:95:22:b7:b1:de:54:34:b9:d6:77:48:36:e1:
                    cb:a9:ef:d0:03:98:71:66:fc:70:17:25:71:e9:ab:
                    14:84:65:ff:65:18:6d:0a:e1:38:af:60:74:96:5d:
                    67:20:b1:e5:9d:cd:12:55:7b:62:51:14:79:c3:0a:
                    0a:36:fe:0f:5c:a5:42:5d:e4:4a:a0:dd:ad:e6:f2:
                    1e:ad:5a:fb:18:62:c1:53:93:09:0f:bd:bf:6b:b9:
                    a4:dd:12:a9:63:e5:d7:1d:10:e6:e6:ec:0c:50:08:
                    08:74:b9:80:8a:fe:7b:fa:ad:6f:ce:eb:df:b0:14:
                    a2:2f:00:9e:2f:d7:c4:a8:fe:65:40:8f:2d:0d:ac:
                    e5:65:ac:66:f2:55:b8:c9:31:6d:f9:25:2b:dc:7c:
                    9d:3c:82:9e:36:12:4d:19:4b:43:5f:c6:8d:bd:98:
                    96:0d:57:4e:a1:90:e9:fe:37:ba:c2:3e:f6:bb:68:
                    a9:4c:20:59:cc:18:f0:9a:6d:7a:ef:c8:3e:eb:97:
                    c1:93:94:57:5c:f5:e0:8d:22:bf:b9:75:88:82:b9:
                    19:36:2c:a3:f3:ef:f5:cc:3f:c6:44:3d:3e:f6:63:
                    68:6b:73:38:c3:e5:87:7a:61:92:d9:94:bf:26:2f:
                    5e:1c:b9:00:ca:80:74:6d:a4:4b:51:07:45:df:9f:
                    ce:87
                Exponent: 65537 (0x10001)
        X509v3 extensions:
            X509v3 Basic Constraints: 
                CA:FALSE
            X509v3 Key Usage: 
                Digital Signature, Data Encipherment
            X509v3 Extended Key Usage: 
                TLS Web Client Authentication
            Netscape Comment: 
                OpenSSL Generated Certificate
            X509v3 Subject Key Identifier: 
                AB:AF:58:7E:28:17:64:81:A4:AE:0E:1C:66:5D:22:24:D8:0B:29:A8
            X509v3 Authority Key Identifier: 
                CE:8A:AB:EF:48:AB:8F:9A:2C:D7:2E:F3:9F:58:2A:7B:5B:85:E1:87
            X509v3 CRL Distribution Points: 
                Full Name:
                  URI:http://192.168.21.89/rootcrl.pem
    Signature Algorithm: sha1WithRSAEncryption
    Signature Value:
        3a:2c:65:e8:0b:57:9e:f7:cf:c4:57:36:75:22:32:49:e7:f5:
        0a:a7:74:f9:ca:b7:b7:08:92:8e:9c:4b:42:43:aa:eb:06:7a:
        6b:f8:5c:1f:89:34:a6:4d:81:27:1d:d8:a9:67:26:4b:2e:d2:
        0c:88:6b:66:8a:49:95:e9:5b:27:39:73:d0:9a:e9:03:53:9a:
        b0:ab:f4:97:ae:7d:76:55:0a:85:27:54:57:7b:88:77:66:7e:
        76:5c:29:a0:de:8f:f3:8a:4c:21:93:c7:da:45:78:55:c0:c7:
        10:a4:42:9c:41:3f:e6:12:fd:e4:50:d4:c9:b5:78:ca:3e:86:
        17:0e:f8:e0:88:e2:cf:d4:2b:4b:3c:71:83:16:b9:cb:39:c2:
        f6:f6:1a:de:e6:69:ed:57:cd:d0:34:96:6e:48:23:60:60:c5:
        55:69:fe:1f:dd:96:ee:b5:f4:6e:45:53:6c:23:ca:96:e4:83:
        ef:e1:9b:f9:c2:4a:3a:01:33:a4:b5:82:01:63:69:62:6c:1d:
        d4:c2:9d:cc:d2:75:e8:62:0a:c2:2f:ca:41:70:b8:d9:d7:63:
        d4:88:f8:4f:2d:84:f1:fb:f9:1d:3a:8c:9a:6d:67:ba:8e:f4:
        bc:0e:7e:ca:a4:46:d9:a5:57:e9:93:77:67:5a:39:12:9d:0b:
        bf:cc:e2:e2
-----BEGIN CERTIFICATE-----
MIIEOjCCAyKgAwIBAgIBCDANBgkqhkiG9w0BAQUFADCBiTELMAkGA1UEBhMCQkEx
CzAJBgNVBAgTAlJTMRMwEQYDVQQHEwpCYW5qYSBMdWthMSEwHwYDVQQKExhFbGVr
dHJvdGVobmlja2kgZmFrdWx0ZXQxDDAKBgNVBAsTA0VURjELMAkGA1UEAxMCQ0Ex
GjAYBgkqhkiG9w0BCQEWC2NhQG1haWwuY29tMB4XDTIzMDIwNjAwNTUwM1oXDTIz
MDgwNzAwNTUwM1owYzELMAkGA1UEBhMCQkExCzAJBgNVBAgTAlJTMQwwCgYDVQQK
EwNFVEYxDDAKBgNVBAsTA0VURjENMAsGA1UEAxMEbWlrYTEcMBoGCSqGSIb3DQEJ
ARYNbWlrYUBtYWlsLmNvbTCCASIwDQYJKoZIhvcNAQEBBQADggEPADCCAQoCggEB
AKeVIrex3lQ0udZ3SDbhy6nv0AOYcWb8cBclcemrFIRl/2UYbQrhOK9gdJZdZyCx
5Z3NElV7YlEUecMKCjb+D1ylQl3kSqDdrebyHq1a+xhiwVOTCQ+9v2u5pN0SqWPl
1x0Q5ubsDFAICHS5gIr+e/qtb87r37AUoi8Ani/XxKj+ZUCPLQ2s5WWsZvJVuMkx
bfklK9x8nTyCnjYSTRlLQ1/Gjb2Ylg1XTqGQ6f43usI+9rtoqUwgWcwY8Jpteu/I
PuuXwZOUV1z14I0iv7l1iIK5GTYso/Pv9cw/xkQ9PvZjaGtzOMPlh3phktmUvyYv
Xhy5AMqAdG2kS1EHRd+fzocCAwEAAaOB0TCBzjAJBgNVHRMEAjAAMAsGA1UdDwQE
AwIEkDATBgNVHSUEDDAKBggrBgEFBQcDAjAsBglghkgBhvhCAQ0EHxYdT3BlblNT
TCBHZW5lcmF0ZWQgQ2VydGlmaWNhdGUwHQYDVR0OBBYEFKuvWH4oF2SBpK4OHGZd
IiTYCymoMB8GA1UdIwQYMBaAFM6Kq+9Iq4+aLNcu859YKntbheGHMDEGA1UdHwQq
MCgwJqAkoCKGIGh0dHA6Ly8xOTIuMTY4LjIxLjg5L3Jvb3RjcmwucGVtMA0GCSqG
SIb3DQEBBQUAA4IBAQA6LGXoC1ee98/EVzZ1IjJJ5/UKp3T5yre3CJKOnEtCQ6rr
Bnpr+FwfiTSmTYEnHdipZyZLLtIMiGtmikmV6VsnOXPQmukDU5qwq/SXrn12VQqF
J1RXe4h3Zn52XCmg3o/zikwhk8faRXhVwMcQpEKcQT/mEv3kUNTJtXjKPoYXDvjg
iOLP1CtLPHGDFrnLOcL29hre5mntV83QNJZuSCNgYMVVaf4f3ZbutfRuRVNsI8qW
5IPv4Zv5wko6ATOktYIBY2libB3Uwp3M0nXoYgrCL8pBcLjZ12PUiPhPLYTx+/kd
OoyabWe6jvS8Dn7KpEbZpVfpk3dnWjkSnQu/zOLi
-----END CERTIFICATE-----
