Certificate:
    Data:
        Version: 3 (0x2)
        Serial Number: 10 (0xa)
        Signature Algorithm: sha1WithRSAEncryption
        Issuer: C=BA, ST=RS, L=Banja Luka, O=Elektrotehnicki fakultet, OU=ETF, CN=CA/emailAddress=ca@mail.com
        Validity
            Not Before: Feb  8 01:18:51 2023 GMT
            Not After : Aug  9 01:18:51 2023 GMT
        Subject: C=BA, ST=RS, O=ETF, OU=ETF, CN=milan/emailAddress=milan@mail.com
        Subject Public Key Info:
            Public Key Algorithm: rsaEncryption
                Public-Key: (2048 bit)
                Modulus:
                    00:c1:ce:6f:5b:6c:2e:9e:de:39:72:01:b0:34:60:
                    8a:39:79:c6:be:dc:de:2d:30:bc:a1:15:a8:f3:2a:
                    8d:39:8c:b0:bb:e2:64:e5:ea:6a:be:b7:58:3a:40:
                    c3:3e:5c:7a:1b:7c:db:fd:4d:29:4f:29:08:89:31:
                    89:bb:8d:70:39:d9:30:ad:c7:26:65:d1:ae:05:02:
                    3b:8d:62:ca:b4:c1:90:2d:60:5e:1b:00:1e:05:60:
                    28:7b:06:45:0d:6f:2e:f2:96:57:8b:64:e2:b4:11:
                    5a:ea:cd:a4:0f:29:5f:e3:3d:d1:cd:b0:99:84:8c:
                    13:a9:c9:05:f7:3d:a3:07:ed:a4:90:80:80:f4:72:
                    23:ba:bc:c8:3b:bd:f3:ae:ea:43:ae:2b:b3:35:5e:
                    a1:67:87:bb:9c:f8:cf:9c:dd:09:b3:2c:d5:8b:a1:
                    db:43:f8:0e:0a:3f:c9:74:8e:73:73:a3:bf:19:5e:
                    a8:b9:05:ce:6c:ec:88:75:07:ec:3c:28:89:e9:4e:
                    53:07:49:b7:49:fe:17:03:ec:9c:76:04:f1:7b:56:
                    45:46:9d:50:d4:ae:31:ce:44:33:57:6a:99:1b:27:
                    62:64:1a:6a:5c:c3:87:35:a8:39:e3:2f:a9:ce:a4:
                    b8:a0:20:60:6c:0b:eb:4e:2d:27:f0:90:b6:42:55:
                    57:35
                Exponent: 65537 (0x10001)
        X509v3 extensions:
            X509v3 Basic Constraints: 
                CA:FALSE
            X509v3 Key Usage: 
                Digital Signature, Data Encipherment
            X509v3 Extended Key Usage: 
                TLS Web Client Authentication
            Netscape Comment: 
                OpenSSL Generated Certificate
            X509v3 Subject Key Identifier: 
                10:12:85:58:02:54:F8:42:3D:43:D9:50:FC:FB:29:B6:11:B5:EB:29
            X509v3 Authority Key Identifier: 
                CE:8A:AB:EF:48:AB:8F:9A:2C:D7:2E:F3:9F:58:2A:7B:5B:85:E1:87
            X509v3 CRL Distribution Points: 
                Full Name:
                  URI:http://192.168.21.89/rootcrl.pem
    Signature Algorithm: sha1WithRSAEncryption
    Signature Value:
        5d:ab:d7:66:76:9a:9c:99:84:50:50:db:4e:eb:bc:4f:c9:c3:
        29:42:e3:24:c5:4e:0d:32:4e:1d:8b:0a:29:f6:f6:e0:f4:fb:
        ae:57:66:1f:68:27:fb:12:58:0b:04:6a:be:72:70:9f:e2:1e:
        3d:08:ff:18:1c:48:f0:66:eb:e3:6f:13:99:9c:8b:b5:f2:3d:
        b7:d4:35:70:36:10:e0:16:b2:e6:8c:22:64:cb:c8:a0:3b:9a:
        81:e8:a5:7d:2c:b3:65:40:f2:29:76:f0:fb:35:73:d1:0a:8d:
        8b:eb:11:69:48:c9:c6:51:1d:d7:de:88:08:f8:92:8d:21:92:
        0c:cd:f5:f4:69:b9:7d:96:b7:d4:24:4d:09:aa:76:4b:b2:0c:
        0c:a6:36:29:c8:80:13:bd:10:52:ea:78:19:24:fb:a7:55:94:
        d5:71:ec:78:b6:52:2d:6c:97:36:49:6a:87:c5:3b:1f:8b:26:
        f4:fb:18:c2:34:d2:c9:e0:bb:6c:19:2a:5d:d9:ba:fd:dd:6f:
        62:eb:e5:3d:d6:71:93:32:7f:07:c8:50:f6:78:c0:be:17:2a:
        40:91:8a:a2:a2:e6:c4:25:9a:fc:1d:6b:b3:6d:04:e3:0a:43:
        bd:5a:ce:9f:53:74:40:6a:66:69:0b:dc:3b:8d:86:90:aa:a0:
        d6:c7:c0:b3
-----BEGIN CERTIFICATE-----
MIIEPDCCAySgAwIBAgIBCjANBgkqhkiG9w0BAQUFADCBiTELMAkGA1UEBhMCQkEx
CzAJBgNVBAgTAlJTMRMwEQYDVQQHEwpCYW5qYSBMdWthMSEwHwYDVQQKExhFbGVr
dHJvdGVobmlja2kgZmFrdWx0ZXQxDDAKBgNVBAsTA0VURjELMAkGA1UEAxMCQ0Ex
GjAYBgkqhkiG9w0BCQEWC2NhQG1haWwuY29tMB4XDTIzMDIwODAxMTg1MVoXDTIz
MDgwOTAxMTg1MVowZTELMAkGA1UEBhMCQkExCzAJBgNVBAgTAlJTMQwwCgYDVQQK
EwNFVEYxDDAKBgNVBAsTA0VURjEOMAwGA1UEAxMFbWlsYW4xHTAbBgkqhkiG9w0B
CQEWDm1pbGFuQG1haWwuY29tMIIBIjANBgkqhkiG9w0BAQEFAAOCAQ8AMIIBCgKC
AQEAwc5vW2wunt45cgGwNGCKOXnGvtzeLTC8oRWo8yqNOYywu+Jk5epqvrdYOkDD
Plx6G3zb/U0pTykIiTGJu41wOdkwrccmZdGuBQI7jWLKtMGQLWBeGwAeBWAoewZF
DW8u8pZXi2TitBFa6s2kDylf4z3RzbCZhIwTqckF9z2jB+2kkICA9HIjurzIO73z
rupDriuzNV6hZ4e7nPjPnN0JsyzVi6HbQ/gOCj/JdI5zc6O/GV6ouQXObOyIdQfs
PCiJ6U5TB0m3Sf4XA+ycdgTxe1ZFRp1Q1K4xzkQzV2qZGydiZBpqXMOHNag54y+p
zqS4oCBgbAvrTi0n8JC2QlVXNQIDAQABo4HRMIHOMAkGA1UdEwQCMAAwCwYDVR0P
BAQDAgSQMBMGA1UdJQQMMAoGCCsGAQUFBwMCMCwGCWCGSAGG+EIBDQQfFh1PcGVu
U1NMIEdlbmVyYXRlZCBDZXJ0aWZpY2F0ZTAdBgNVHQ4EFgQUEBKFWAJU+EI9Q9lQ
/PspthG16ykwHwYDVR0jBBgwFoAUzoqr70irj5os1y7zn1gqe1uF4YcwMQYDVR0f
BCowKDAmoCSgIoYgaHR0cDovLzE5Mi4xNjguMjEuODkvcm9vdGNybC5wZW0wDQYJ
KoZIhvcNAQEFBQADggEBAF2r12Z2mpyZhFBQ207rvE/JwylC4yTFTg0yTh2LCin2
9uD0+65XZh9oJ/sSWAsEar5ycJ/iHj0I/xgcSPBm6+NvE5mci7XyPbfUNXA2EOAW
suaMImTLyKA7moHopX0ss2VA8il28Ps1c9EKjYvrEWlIycZRHdfeiAj4ko0hkgzN
9fRpuX2Wt9QkTQmqdkuyDAymNinIgBO9EFLqeBkk+6dVlNVx7Hi2Ui1slzZJaofF
Ox+LJvT7GMI00sngu2wZKl3Zuv3db2Lr5T3WcZMyfwfIUPZ4wL4XKkCRiqKi5sQl
mvwda7NtBOMKQ71azp9TdEBqZmkL3DuNhpCqoNbHwLM=
-----END CERTIFICATE-----
