Certificate:
    Data:
        Version: 3 (0x2)
        Serial Number: 12 (0xc)
        Signature Algorithm: sha1WithRSAEncryption
        Issuer: C=BA, ST=RS, L=Banja Luka, O=Elektrotehnicki fakultet, OU=ETF, CN=CA/emailAddress=ca@mail.com
        Validity
            Not Before: Feb  8 01:27:04 2023 GMT
            Not After : Aug  9 01:27:04 2023 GMT
        Subject: C=BA, ST=RS, O=ETF, OU=ETF, CN=jovan/emailAddress=jovan@mail.com
        Subject Public Key Info:
            Public Key Algorithm: rsaEncryption
                Public-Key: (2048 bit)
                Modulus:
                    00:c5:8d:3f:3d:5a:47:bc:ab:c5:9d:6a:de:00:70:
                    ad:cf:d0:46:d1:ce:0d:f8:cf:a3:70:d1:e7:07:90:
                    06:37:ed:5f:a7:c5:36:56:f4:06:3f:9e:c9:93:a6:
                    81:48:03:4c:e4:93:2d:1b:9b:6a:06:21:0b:cf:68:
                    f1:86:44:3c:c6:d1:a1:4e:63:62:02:5a:2a:4c:a8:
                    82:d3:49:22:d7:20:80:23:04:11:96:cc:98:f4:f3:
                    6d:07:69:80:65:00:f1:87:f0:67:d4:cc:de:ad:6e:
                    a8:30:40:58:ae:cc:3c:3a:5c:97:f3:70:7c:a4:30:
                    40:2b:ea:76:e8:64:96:d2:4a:a3:63:b9:21:54:35:
                    34:e6:37:d7:17:55:3f:d7:cf:31:ee:f3:e2:0a:29:
                    66:b4:b4:dc:33:ab:8d:e0:4d:0e:a5:48:0e:20:2c:
                    3b:64:2a:19:fa:fd:ae:54:f0:4b:c6:a7:68:7e:65:
                    d9:fa:6f:2c:09:8a:e8:09:4a:17:bb:2e:2b:64:d2:
                    9d:82:f2:50:7c:cd:32:01:53:e0:15:d0:4d:b7:fa:
                    e6:e9:81:57:0e:01:c5:99:78:ad:ba:97:41:0c:8f:
                    6a:93:95:c8:d3:4c:8a:b1:68:a0:08:d1:e6:f9:15:
                    0e:6f:a7:a3:ac:4f:0f:69:61:92:3b:22:23:e8:f4:
                    d3:a3
                Exponent: 65537 (0x10001)
        X509v3 extensions:
            X509v3 Basic Constraints: 
                CA:FALSE
            X509v3 Key Usage: 
                Digital Signature, Data Encipherment
            X509v3 Extended Key Usage: 
                TLS Web Client Authentication
            Netscape Comment: 
                OpenSSL Generated Certificate
            X509v3 Subject Key Identifier: 
                F1:08:61:B2:6D:09:68:87:1D:94:6A:37:87:D6:BB:DF:B4:42:AF:5C
            X509v3 Authority Key Identifier: 
                CE:8A:AB:EF:48:AB:8F:9A:2C:D7:2E:F3:9F:58:2A:7B:5B:85:E1:87
            X509v3 CRL Distribution Points: 
                Full Name:
                  URI:http://192.168.21.89/rootcrl.pem
    Signature Algorithm: sha1WithRSAEncryption
    Signature Value:
        ad:08:15:8f:2f:f4:82:90:51:6c:58:c0:c6:a1:1a:71:d5:00:
        30:a4:6f:95:ad:a5:da:f6:d5:2c:27:1a:f0:b6:e1:4f:33:8b:
        aa:4f:54:2e:78:e5:be:a5:09:bf:4a:37:3d:f7:dc:4d:e1:0c:
        93:d2:0d:dc:2e:0b:d7:63:f9:8d:6b:8a:61:a1:da:ee:1a:57:
        78:0c:29:4e:aa:86:a8:6d:21:75:73:c8:b7:4e:a3:9e:fa:dc:
        42:48:b0:06:50:43:d1:90:83:55:81:f8:1d:d7:b8:39:1b:ee:
        c7:36:6c:9c:6b:a7:c1:38:fd:85:77:2e:c1:1a:24:70:ab:6c:
        64:aa:4f:8d:d0:12:db:a1:a5:04:bd:7e:8a:19:d7:29:c3:1f:
        b0:40:82:43:fb:bc:dd:05:97:db:ef:ff:9a:2f:b7:0c:e2:b0:
        b0:95:3e:63:f9:3c:10:a8:87:cd:92:05:2b:1b:dc:1b:bf:47:
        3e:17:a1:8a:d0:25:ff:27:49:bb:2e:d8:a6:b0:54:6f:69:8f:
        e8:2d:33:02:5e:7f:05:07:2c:ab:cd:1f:f2:73:55:43:34:9b:
        a1:93:4a:1c:9f:3e:1e:f5:aa:2a:dd:27:75:f4:dd:d8:f3:2b:
        2c:75:6e:ea:d8:77:a9:1b:3d:22:5f:b4:15:ba:56:a3:e5:8b:
        45:7d:20:e7
-----BEGIN CERTIFICATE-----
MIIEPDCCAySgAwIBAgIBDDANBgkqhkiG9w0BAQUFADCBiTELMAkGA1UEBhMCQkEx
CzAJBgNVBAgTAlJTMRMwEQYDVQQHEwpCYW5qYSBMdWthMSEwHwYDVQQKExhFbGVr
dHJvdGVobmlja2kgZmFrdWx0ZXQxDDAKBgNVBAsTA0VURjELMAkGA1UEAxMCQ0Ex
GjAYBgkqhkiG9w0BCQEWC2NhQG1haWwuY29tMB4XDTIzMDIwODAxMjcwNFoXDTIz
MDgwOTAxMjcwNFowZTELMAkGA1UEBhMCQkExCzAJBgNVBAgTAlJTMQwwCgYDVQQK
EwNFVEYxDDAKBgNVBAsTA0VURjEOMAwGA1UEAxMFam92YW4xHTAbBgkqhkiG9w0B
CQEWDmpvdmFuQG1haWwuY29tMIIBIjANBgkqhkiG9w0BAQEFAAOCAQ8AMIIBCgKC
AQEAxY0/PVpHvKvFnWreAHCtz9BG0c4N+M+jcNHnB5AGN+1fp8U2VvQGP57Jk6aB
SANM5JMtG5tqBiELz2jxhkQ8xtGhTmNiAloqTKiC00ki1yCAIwQRlsyY9PNtB2mA
ZQDxh/Bn1MzerW6oMEBYrsw8OlyX83B8pDBAK+p26GSW0kqjY7khVDU05jfXF1U/
188x7vPiCilmtLTcM6uN4E0OpUgOICw7ZCoZ+v2uVPBLxqdofmXZ+m8sCYroCUoX
uy4rZNKdgvJQfM0yAVPgFdBNt/rm6YFXDgHFmXitupdBDI9qk5XI00yKsWigCNHm
+RUOb6ejrE8PaWGSOyIj6PTTowIDAQABo4HRMIHOMAkGA1UdEwQCMAAwCwYDVR0P
BAQDAgSQMBMGA1UdJQQMMAoGCCsGAQUFBwMCMCwGCWCGSAGG+EIBDQQfFh1PcGVu
U1NMIEdlbmVyYXRlZCBDZXJ0aWZpY2F0ZTAdBgNVHQ4EFgQU8Qhhsm0JaIcdlGo3
h9a737RCr1wwHwYDVR0jBBgwFoAUzoqr70irj5os1y7zn1gqe1uF4YcwMQYDVR0f
BCowKDAmoCSgIoYgaHR0cDovLzE5Mi4xNjguMjEuODkvcm9vdGNybC5wZW0wDQYJ
KoZIhvcNAQEFBQADggEBAK0IFY8v9IKQUWxYwMahGnHVADCkb5Wtpdr21SwnGvC2
4U8zi6pPVC545b6lCb9KNz333E3hDJPSDdwuC9dj+Y1rimGh2u4aV3gMKU6qhqht
IXVzyLdOo5763EJIsAZQQ9GQg1WB+B3XuDkb7sc2bJxrp8E4/YV3LsEaJHCrbGSq
T43QEtuhpQS9fooZ1ynDH7BAgkP7vN0Fl9vv/5ovtwzisLCVPmP5PBCoh82SBSsb
3Bu/Rz4XoYrQJf8nSbsu2KawVG9pj+gtMwJefwUHLKvNH/JzVUM0m6GTShyfPh71
qirdJ3X03djzKyx1burYd6kbPSJftBW6VqPli0V9IOc=
-----END CERTIFICATE-----
