Certificate:
    Data:
        Version: 3 (0x2)
        Serial Number: 13 (0xd)
        Signature Algorithm: sha1WithRSAEncryption
        Issuer: C=BA, ST=RS, L=Banja Luka, O=Elektrotehnicki fakultet, OU=ETF, CN=CA/emailAddress=ca@mail.com
        Validity
            Not Before: Feb  8 22:08:17 2023 GMT
            Not After : Aug  9 22:08:17 2023 GMT
        Subject: C=BA, ST=RS, O=ETF, OU=ETF, CN=nk/emailAddress=nk@mail.com
        Subject Public Key Info:
            Public Key Algorithm: rsaEncryption
                Public-Key: (2048 bit)
                Modulus:
                    00:aa:1a:2d:99:2c:6b:17:e3:c2:8e:35:bb:cb:72:
                    8f:17:1d:00:6d:1d:a3:3d:91:57:40:f2:a5:0d:1c:
                    a3:cb:3c:76:f1:ad:56:00:d3:47:62:3c:fd:77:ea:
                    9a:05:73:8e:d1:e5:f7:aa:63:33:1e:52:c8:c3:42:
                    f9:48:ba:03:49:67:09:f2:e6:61:e4:fa:d7:eb:b1:
                    1d:e3:ec:4c:4c:d0:48:09:48:84:14:dc:5d:dc:83:
                    34:6f:22:a9:35:da:d6:c3:e5:3e:d8:eb:bc:ac:c1:
                    12:0a:89:c3:33:27:1e:36:1e:bd:33:c9:3e:6b:4a:
                    93:0a:03:60:b9:77:75:bd:85:cd:7d:86:57:1e:22:
                    60:36:79:af:88:99:82:be:83:ef:36:53:f9:55:bf:
                    bc:92:67:65:c5:d2:fe:f9:b0:53:8b:00:ec:c3:27:
                    62:ff:29:b0:f2:42:3c:ba:1d:1a:67:55:26:e3:60:
                    c6:a6:74:66:5b:8e:1a:1c:98:95:38:60:ce:82:dd:
                    42:94:7f:8b:ae:d3:0f:8a:58:c6:82:21:20:3f:e2:
                    6b:a0:5a:1d:84:62:fd:d0:dc:97:65:02:5b:1e:9f:
                    1e:43:c2:ac:b7:2e:26:f6:54:68:93:33:cf:cf:e2:
                    62:c1:bc:d9:bf:e9:67:d8:96:07:1d:2c:07:83:92:
                    9f:67
                Exponent: 65537 (0x10001)
        X509v3 extensions:
            X509v3 Basic Constraints: 
                CA:FALSE
            X509v3 Key Usage: 
                Digital Signature, Data Encipherment
            X509v3 Extended Key Usage: 
                TLS Web Client Authentication
            Netscape Comment: 
                OpenSSL Generated Certificate
            X509v3 Subject Key Identifier: 
                92:EB:8B:A2:BE:C8:99:FD:97:CB:6F:AB:1E:CE:57:90:CF:2E:BA:60
            X509v3 Authority Key Identifier: 
                CE:8A:AB:EF:48:AB:8F:9A:2C:D7:2E:F3:9F:58:2A:7B:5B:85:E1:87
            X509v3 CRL Distribution Points: 
                Full Name:
                  URI:http://192.168.21.89/rootcrl.pem
    Signature Algorithm: sha1WithRSAEncryption
    Signature Value:
        0f:d4:7a:c4:78:98:81:d0:d0:73:0f:af:88:03:ee:e1:70:7e:
        85:fa:73:1b:f1:82:45:0d:b2:bb:b4:28:b1:dc:8c:a6:b4:83:
        5a:30:34:4c:3d:02:f6:da:55:68:f6:bc:ac:9f:af:ca:07:47:
        64:fd:80:57:4e:81:76:d9:1f:e2:c6:e5:ba:0f:d9:40:06:a7:
        79:6a:2e:00:26:c6:0f:02:85:48:cd:d1:23:e9:7f:d7:69:ef:
        83:c1:b1:ec:e1:60:a4:93:9d:19:e2:d4:84:ec:cc:da:a3:9e:
        01:34:25:4e:77:23:28:5e:83:f2:78:69:c3:de:5d:4f:72:11:
        45:77:d2:7b:10:a6:2a:84:ba:ed:d5:cc:45:68:0f:51:86:87:
        a2:e1:b8:e4:62:1f:17:a0:a2:7d:1e:ec:e4:d6:6b:22:15:ba:
        f2:fa:9e:13:67:ee:8f:95:c1:f7:d7:20:10:aa:e8:80:73:5c:
        2b:23:ee:0e:b7:82:1b:03:da:0b:74:04:ed:5c:18:70:06:66:
        e7:bb:97:1c:07:51:b9:ce:41:83:e6:3e:63:06:16:94:87:70:
        1b:4f:5a:1e:cd:00:b7:9c:ac:88:6a:1c:cd:ce:62:a0:0d:11:
        be:cc:b6:e5:cd:20:3a:30:9c:aa:2d:c2:dd:bf:d7:a6:a9:ff:
        15:98:00:93
-----BEGIN CERTIFICATE-----
MIIENjCCAx6gAwIBAgIBDTANBgkqhkiG9w0BAQUFADCBiTELMAkGA1UEBhMCQkEx
CzAJBgNVBAgTAlJTMRMwEQYDVQQHEwpCYW5qYSBMdWthMSEwHwYDVQQKExhFbGVr
dHJvdGVobmlja2kgZmFrdWx0ZXQxDDAKBgNVBAsTA0VURjELMAkGA1UEAxMCQ0Ex
GjAYBgkqhkiG9w0BCQEWC2NhQG1haWwuY29tMB4XDTIzMDIwODIyMDgxN1oXDTIz
MDgwOTIyMDgxN1owXzELMAkGA1UEBhMCQkExCzAJBgNVBAgTAlJTMQwwCgYDVQQK
EwNFVEYxDDAKBgNVBAsTA0VURjELMAkGA1UEAxMCbmsxGjAYBgkqhkiG9w0BCQEW
C25rQG1haWwuY29tMIIBIjANBgkqhkiG9w0BAQEFAAOCAQ8AMIIBCgKCAQEAqhot
mSxrF+PCjjW7y3KPFx0AbR2jPZFXQPKlDRyjyzx28a1WANNHYjz9d+qaBXOO0eX3
qmMzHlLIw0L5SLoDSWcJ8uZh5PrX67Ed4+xMTNBICUiEFNxd3IM0byKpNdrWw+U+
2Ou8rMESConDMyceNh69M8k+a0qTCgNguXd1vYXNfYZXHiJgNnmviJmCvoPvNlP5
Vb+8kmdlxdL++bBTiwDswydi/ymw8kI8uh0aZ1Um42DGpnRmW44aHJiVOGDOgt1C
lH+LrtMPiljGgiEgP+JroFodhGL90NyXZQJbHp8eQ8Ksty4m9lRokzPPz+JiwbzZ
v+ln2JYHHSwHg5KfZwIDAQABo4HRMIHOMAkGA1UdEwQCMAAwCwYDVR0PBAQDAgSQ
MBMGA1UdJQQMMAoGCCsGAQUFBwMCMCwGCWCGSAGG+EIBDQQfFh1PcGVuU1NMIEdl
bmVyYXRlZCBDZXJ0aWZpY2F0ZTAdBgNVHQ4EFgQUkuuLor7Imf2Xy2+rHs5XkM8u
umAwHwYDVR0jBBgwFoAUzoqr70irj5os1y7zn1gqe1uF4YcwMQYDVR0fBCowKDAm
oCSgIoYgaHR0cDovLzE5Mi4xNjguMjEuODkvcm9vdGNybC5wZW0wDQYJKoZIhvcN
AQEFBQADggEBAA/UesR4mIHQ0HMPr4gD7uFwfoX6cxvxgkUNsru0KLHcjKa0g1ow
NEw9AvbaVWj2vKyfr8oHR2T9gFdOgXbZH+LG5boP2UAGp3lqLgAmxg8ChUjN0SPp
f9dp74PBsezhYKSTnRni1ITszNqjngE0JU53Iyheg/J4acPeXU9yEUV30nsQpiqE
uu3VzEVoD1GGh6LhuORiHxegon0e7OTWayIVuvL6nhNn7o+VwffXIBCq6IBzXCsj
7g63ghsD2gt0BO1cGHAGZue7lxwHUbnOQYPmPmMGFpSHcBtPWh7NALecrIhqHM3O
YqANEb7MtuXNIDownKotwt2/16ap/xWYAJM=
-----END CERTIFICATE-----
