Certificate:
    Data:
        Version: 3 (0x2)
        Serial Number: 9 (0x9)
        Signature Algorithm: sha1WithRSAEncryption
        Issuer: C=BA, ST=RS, L=Banja Luka, O=Elektrotehnicki fakultet, OU=ETF, CN=CA/emailAddress=ca@mail.com
        Validity
            Not Before: Feb  8 01:11:03 2023 GMT
            Not After : Aug  9 01:11:03 2023 GMT
        Subject: C=BA, ST=RS, O=ETF, OU=ETF, CN=dzona/emailAddress=dzona@mail.com
        Subject Public Key Info:
            Public Key Algorithm: rsaEncryption
                Public-Key: (2048 bit)
                Modulus:
                    00:ac:d8:25:9c:73:ac:4e:a4:98:a1:89:c7:88:3b:
                    93:37:7b:25:7d:16:56:f8:ba:4e:47:b2:67:ab:d3:
                    8d:c2:89:49:d6:21:a6:bb:2f:d7:15:d1:4d:ce:84:
                    0a:4d:a7:c1:4d:aa:dd:57:df:de:59:fc:02:46:8c:
                    31:81:57:99:22:14:01:55:60:4f:02:0e:97:a5:e1:
                    08:24:22:9d:ea:3b:99:0d:a2:f6:2b:82:47:5f:51:
                    c9:65:08:db:82:f2:09:55:30:c2:ee:98:35:e2:08:
                    e1:fb:db:e1:5d:f4:7a:66:11:eb:15:0f:63:2f:80:
                    12:d4:6a:8c:10:3a:52:0f:bd:0c:17:f2:5e:dd:2b:
                    f7:42:a3:e2:26:99:f1:83:ff:d1:55:98:8b:d2:e3:
                    95:5c:c8:51:f1:58:61:05:3a:c0:fd:d1:f0:b8:1b:
                    01:f5:c5:98:08:26:2d:1e:25:4c:3d:c2:f5:36:5b:
                    a2:21:6d:72:c8:be:e0:13:77:e3:cd:9d:be:90:e1:
                    60:33:4d:38:da:e3:17:af:5c:43:83:3b:5d:12:5a:
                    f6:62:51:e6:81:a4:4e:66:4c:7f:fc:71:ee:53:2e:
                    92:6f:36:da:4a:13:e2:31:33:36:33:38:99:ed:7e:
                    54:a4:dd:d4:82:cb:38:74:e9:f8:96:ee:ca:4d:d0:
                    f6:7b
                Exponent: 65537 (0x10001)
        X509v3 extensions:
            X509v3 Basic Constraints: 
                CA:FALSE
            X509v3 Key Usage: 
                Digital Signature, Data Encipherment
            X509v3 Extended Key Usage: 
                TLS Web Client Authentication
            Netscape Comment: 
                OpenSSL Generated Certificate
            X509v3 Subject Key Identifier: 
                B7:AE:E3:76:0F:07:6A:44:53:20:EB:09:3F:06:1B:DA:42:A3:67:32
            X509v3 Authority Key Identifier: 
                CE:8A:AB:EF:48:AB:8F:9A:2C:D7:2E:F3:9F:58:2A:7B:5B:85:E1:87
            X509v3 CRL Distribution Points: 
                Full Name:
                  URI:http://192.168.21.89/rootcrl.pem
    Signature Algorithm: sha1WithRSAEncryption
    Signature Value:
        44:08:b6:0b:df:f0:29:55:da:08:3e:dc:44:bb:fb:38:c5:3a:
        29:66:ba:f3:72:07:6b:a0:fd:78:e8:72:a8:65:f5:49:d5:3a:
        30:5f:b6:5e:68:34:aa:3b:d8:57:d5:53:0f:df:83:0a:7c:9b:
        1a:dd:e5:b8:95:4b:86:5f:e5:9e:4e:66:f6:ed:10:e3:9b:d9:
        f9:fd:c6:b2:c6:7a:54:6b:c8:5d:e7:e7:00:78:15:ff:24:dd:
        3a:04:ef:0d:0d:bc:74:16:42:61:51:93:ae:03:89:13:0e:8f:
        f7:48:3f:d9:17:fd:ab:40:fe:09:b7:a9:8b:75:c2:83:63:4e:
        0e:8d:48:78:9b:a8:75:90:e4:4c:ac:97:cc:39:38:d7:b4:66:
        6c:5d:62:d5:0e:b8:ae:d0:62:56:f4:a9:63:57:9b:aa:1f:a5:
        3f:69:1b:e2:a3:2b:f0:2a:d2:87:94:29:68:10:d7:05:84:37:
        fa:0b:70:eb:1e:c3:ff:f5:20:c9:dd:8a:ec:92:49:4b:86:fa:
        be:6d:3c:8f:fc:a9:34:bd:ac:c3:5e:0a:c6:62:1d:4d:a7:00:
        82:16:96:87:51:9c:bc:9d:28:2c:1d:84:52:a2:95:7f:bd:0a:
        8d:b0:1b:d9:37:7f:75:00:0e:47:c1:46:17:20:f6:eb:ff:e1:
        c4:ac:4b:16
-----BEGIN CERTIFICATE-----
MIIEPDCCAySgAwIBAgIBCTANBgkqhkiG9w0BAQUFADCBiTELMAkGA1UEBhMCQkEx
CzAJBgNVBAgTAlJTMRMwEQYDVQQHEwpCYW5qYSBMdWthMSEwHwYDVQQKExhFbGVr
dHJvdGVobmlja2kgZmFrdWx0ZXQxDDAKBgNVBAsTA0VURjELMAkGA1UEAxMCQ0Ex
GjAYBgkqhkiG9w0BCQEWC2NhQG1haWwuY29tMB4XDTIzMDIwODAxMTEwM1oXDTIz
MDgwOTAxMTEwM1owZTELMAkGA1UEBhMCQkExCzAJBgNVBAgTAlJTMQwwCgYDVQQK
EwNFVEYxDDAKBgNVBAsTA0VURjEOMAwGA1UEAxMFZHpvbmExHTAbBgkqhkiG9w0B
CQEWDmR6b25hQG1haWwuY29tMIIBIjANBgkqhkiG9w0BAQEFAAOCAQ8AMIIBCgKC
AQEArNglnHOsTqSYoYnHiDuTN3slfRZW+LpOR7Jnq9ONwolJ1iGmuy/XFdFNzoQK
TafBTardV9/eWfwCRowxgVeZIhQBVWBPAg6XpeEIJCKd6juZDaL2K4JHX1HJZQjb
gvIJVTDC7pg14gjh+9vhXfR6ZhHrFQ9jL4AS1GqMEDpSD70MF/Je3Sv3QqPiJpnx
g//RVZiL0uOVXMhR8VhhBTrA/dHwuBsB9cWYCCYtHiVMPcL1NluiIW1yyL7gE3fj
zZ2+kOFgM0042uMXr1xDgztdElr2YlHmgaROZkx//HHuUy6SbzbaShPiMTM2MziZ
7X5UpN3Ugss4dOn4lu7KTdD2ewIDAQABo4HRMIHOMAkGA1UdEwQCMAAwCwYDVR0P
BAQDAgSQMBMGA1UdJQQMMAoGCCsGAQUFBwMCMCwGCWCGSAGG+EIBDQQfFh1PcGVu
U1NMIEdlbmVyYXRlZCBDZXJ0aWZpY2F0ZTAdBgNVHQ4EFgQUt67jdg8HakRTIOsJ
PwYb2kKjZzIwHwYDVR0jBBgwFoAUzoqr70irj5os1y7zn1gqe1uF4YcwMQYDVR0f
BCowKDAmoCSgIoYgaHR0cDovLzE5Mi4xNjguMjEuODkvcm9vdGNybC5wZW0wDQYJ
KoZIhvcNAQEFBQADggEBAEQItgvf8ClV2gg+3ES7+zjFOilmuvNyB2ug/Xjocqhl
9UnVOjBftl5oNKo72FfVUw/fgwp8mxrd5biVS4Zf5Z5OZvbtEOOb2fn9xrLGelRr
yF3n5wB4Ff8k3ToE7w0NvHQWQmFRk64DiRMOj/dIP9kX/atA/gm3qYt1woNjTg6N
SHibqHWQ5Eysl8w5ONe0ZmxdYtUOuK7QYlb0qWNXm6ofpT9pG+KjK/Aq0oeUKWgQ
1wWEN/oLcOsew//1IMndiuySSUuG+r5tPI/8qTS9rMNeCsZiHU2nAIIWlodRnLyd
KCwdhFKilX+9Co2wG9k3f3UADkfBRhcg9uv/4cSsSxY=
-----END CERTIFICATE-----
