Certificate:
    Data:
        Version: 3 (0x2)
        Serial Number: 11 (0xb)
        Signature Algorithm: sha1WithRSAEncryption
        Issuer: C=BA, ST=RS, L=Banja Luka, O=Elektrotehnicki fakultet, OU=ETF, CN=CA/emailAddress=ca@mail.com
        Validity
            Not Before: Feb  8 01:22:05 2023 GMT
            Not After : Aug  9 01:22:05 2023 GMT
        Subject: C=BA, ST=RS, O=ETF, OU=ETF, CN=miha/emailAddress=miha@mail.com
        Subject Public Key Info:
            Public Key Algorithm: rsaEncryption
                Public-Key: (2048 bit)
                Modulus:
                    00:ae:bb:68:3d:c3:97:f2:59:ca:41:1a:2b:d9:ab:
                    fe:73:f4:ea:4b:83:39:20:58:9b:61:e1:b7:14:1b:
                    cb:72:bb:f5:a6:b8:27:b8:5c:b8:21:96:22:44:35:
                    5a:a0:43:f7:e9:ce:72:3f:81:64:52:5c:6e:63:99:
                    54:5f:cd:4d:b1:2e:fe:e1:90:ca:4b:ff:29:c7:a6:
                    d3:de:f9:cd:02:72:fb:4e:60:f6:4c:44:35:be:26:
                    44:bb:2a:65:f8:ab:aa:cf:db:e0:7b:50:da:d7:5f:
                    dc:bf:d1:06:a0:3f:a1:6b:e5:20:a8:31:69:e4:70:
                    d7:dd:93:85:0e:bf:a1:6b:85:ca:fd:79:a4:cf:fd:
                    61:b6:f9:1c:89:0f:eb:49:2a:4d:d1:b1:a3:3a:be:
                    43:46:ec:2b:5c:7b:84:1d:74:07:1d:ed:ec:e9:bb:
                    34:10:b9:45:fa:41:6d:36:f1:96:e7:e2:34:ea:48:
                    52:e7:af:d0:53:9d:50:51:f4:1a:2d:6e:fb:25:3a:
                    07:da:4d:d8:a7:5d:c4:69:e3:4b:d3:81:46:ce:f4:
                    fe:da:a2:d3:0a:c5:d3:db:c9:65:02:2f:a5:fc:1f:
                    11:eb:aa:ea:a9:5d:29:c4:1d:53:7b:24:9e:e9:5a:
                    08:f4:78:65:75:7a:7e:36:a6:5e:ab:54:fb:ef:8b:
                    9b:b1
                Exponent: 65537 (0x10001)
        X509v3 extensions:
            X509v3 Basic Constraints: 
                CA:FALSE
            X509v3 Key Usage: 
                Digital Signature, Data Encipherment
            X509v3 Extended Key Usage: 
                TLS Web Client Authentication
            Netscape Comment: 
                OpenSSL Generated Certificate
            X509v3 Subject Key Identifier: 
                58:3B:EE:96:3B:FF:10:48:AA:53:41:BF:25:64:E5:63:F0:FB:81:62
            X509v3 Authority Key Identifier: 
                CE:8A:AB:EF:48:AB:8F:9A:2C:D7:2E:F3:9F:58:2A:7B:5B:85:E1:87
            X509v3 CRL Distribution Points: 
                Full Name:
                  URI:http://192.168.21.89/rootcrl.pem
    Signature Algorithm: sha1WithRSAEncryption
    Signature Value:
        49:ba:b6:4c:8e:ce:dc:f1:e0:84:b1:17:4a:69:25:7b:1a:d0:
        7b:9f:24:73:1a:bf:94:d0:3a:ea:b2:d4:95:bc:63:af:84:d5:
        c0:df:d4:5a:8d:58:2e:d4:91:49:e1:84:3c:66:e3:4d:a1:e6:
        56:82:31:3e:4f:22:b4:66:24:e7:1d:77:ff:59:34:5f:bf:fc:
        6d:9f:9d:a3:ad:31:24:eb:5b:4d:88:f6:33:4e:8a:b2:ec:da:
        c6:6d:60:4d:5b:0e:c0:c6:22:96:d5:65:39:e8:a1:57:5f:ae:
        5e:2c:0f:f4:65:e9:ed:fb:95:13:40:b4:b3:1d:fe:d7:c8:b8:
        2b:42:e4:69:bb:a4:0d:f4:67:a3:cc:e8:c4:e5:e7:36:d8:70:
        b4:75:0c:13:b3:23:94:a0:b4:5d:99:8b:0b:cb:f0:28:04:ba:
        e8:a1:9c:9f:e1:5d:09:c7:d5:bd:42:27:fc:90:94:a5:32:16:
        4a:1a:cc:18:18:f2:bc:6d:e3:85:75:75:03:65:1c:62:c1:b2:
        c8:bf:bb:44:b0:53:a9:a2:f3:fe:59:bf:3a:ad:08:25:0c:05:
        25:19:c3:d3:eb:6a:98:a6:0a:85:3c:e9:22:e3:43:14:20:ba:
        61:9a:54:da:08:bf:4a:d7:6c:1a:b1:a6:10:ed:9f:b0:ec:53:
        f6:12:71:01
-----BEGIN CERTIFICATE-----
MIIEOjCCAyKgAwIBAgIBCzANBgkqhkiG9w0BAQUFADCBiTELMAkGA1UEBhMCQkEx
CzAJBgNVBAgTAlJTMRMwEQYDVQQHEwpCYW5qYSBMdWthMSEwHwYDVQQKExhFbGVr
dHJvdGVobmlja2kgZmFrdWx0ZXQxDDAKBgNVBAsTA0VURjELMAkGA1UEAxMCQ0Ex
GjAYBgkqhkiG9w0BCQEWC2NhQG1haWwuY29tMB4XDTIzMDIwODAxMjIwNVoXDTIz
MDgwOTAxMjIwNVowYzELMAkGA1UEBhMCQkExCzAJBgNVBAgTAlJTMQwwCgYDVQQK
EwNFVEYxDDAKBgNVBAsTA0VURjENMAsGA1UEAxMEbWloYTEcMBoGCSqGSIb3DQEJ
ARYNbWloYUBtYWlsLmNvbTCCASIwDQYJKoZIhvcNAQEBBQADggEPADCCAQoCggEB
AK67aD3Dl/JZykEaK9mr/nP06kuDOSBYm2HhtxQby3K79aa4J7hcuCGWIkQ1WqBD
9+nOcj+BZFJcbmOZVF/NTbEu/uGQykv/Kcem0975zQJy+05g9kxENb4mRLsqZfir
qs/b4HtQ2tdf3L/RBqA/oWvlIKgxaeRw192ThQ6/oWuFyv15pM/9Ybb5HIkP60kq
TdGxozq+Q0bsK1x7hB10Bx3t7Om7NBC5RfpBbTbxlufiNOpIUuev0FOdUFH0Gi1u
+yU6B9pN2KddxGnjS9OBRs70/tqi0wrF09vJZQIvpfwfEeuq6qldKcQdU3sknula
CPR4ZXV6fjamXqtU+++Lm7ECAwEAAaOB0TCBzjAJBgNVHRMEAjAAMAsGA1UdDwQE
AwIEkDATBgNVHSUEDDAKBggrBgEFBQcDAjAsBglghkgBhvhCAQ0EHxYdT3BlblNT
TCBHZW5lcmF0ZWQgQ2VydGlmaWNhdGUwHQYDVR0OBBYEFFg77pY7/xBIqlNBvyVk
5WPw+4FiMB8GA1UdIwQYMBaAFM6Kq+9Iq4+aLNcu859YKntbheGHMDEGA1UdHwQq
MCgwJqAkoCKGIGh0dHA6Ly8xOTIuMTY4LjIxLjg5L3Jvb3RjcmwucGVtMA0GCSqG
SIb3DQEBBQUAA4IBAQBJurZMjs7c8eCEsRdKaSV7GtB7nyRzGr+U0DrqstSVvGOv
hNXA39RajVgu1JFJ4YQ8ZuNNoeZWgjE+TyK0ZiTnHXf/WTRfv/xtn52jrTEk61tN
iPYzToqy7NrGbWBNWw7AxiKW1WU56KFXX65eLA/0Zent+5UTQLSzHf7XyLgrQuRp
u6QN9GejzOjE5ec22HC0dQwTsyOUoLRdmYsLy/AoBLrooZyf4V0Jx9W9Qif8kJSl
MhZKGswYGPK8beOFdXUDZRxiwbLIv7tEsFOpovP+Wb86rQglDAUlGcPT62qYpgqF
POki40MUILphmlTaCL9K12wasaYQ7Z+w7FP2EnEB
-----END CERTIFICATE-----
